target datalayout = "e-m:e-p270:32:32-p271:32:32-p272:64:64-i64:64-i128:128-f80:128-n8:16:32:64-S128"
target triple = "x86_64-pc-linux-gnu"

%struct.strvec = type { ptr, i64, i64 }

; Function Attrs: nounwind uwtable
define dso_local void @strvec_pop(ptr noundef %0) #0 {
  %2 = alloca ptr, align 8
  store ptr %0, ptr %2, align 8, !tbaa !4
  %3 = load ptr, ptr %2, align 8, !tbaa !4
  %4 = getelementptr inbounds nuw %struct.strvec, ptr %3, i32 0, i32 1
  %5 = load i64, ptr %4, align 8, !tbaa !15
  %6 = icmp ne i64 %5, 0
  br i1 %6, label %8, label %7

7:                                                ; preds = %1
  br label %30

8:                                                ; preds = %1
  %9 = load ptr, ptr %2, align 8, !tbaa !4
  %10 = getelementptr inbounds nuw %struct.strvec, ptr %9, i32 0, i32 0
  %11 = load ptr, ptr %10, align 8, !tbaa !11
  %12 = load ptr, ptr %2, align 8, !tbaa !4
  %13 = getelementptr inbounds nuw %struct.strvec, ptr %12, i32 0, i32 1
  %14 = load i64, ptr %13, align 8, !tbaa !15
  %15 = sub i64 %14, 1
  %16 = getelementptr inbounds nuw ptr, ptr %11, i64 %15
  %17 = load ptr, ptr %16, align 8, !tbaa !9
  call void @free(ptr noundef %17) #8
  %18 = load ptr, ptr %2, align 8, !tbaa !4
  %19 = getelementptr inbounds nuw %struct.strvec, ptr %18, i32 0, i32 0
  %20 = load ptr, ptr %19, align 8, !tbaa !11
  %21 = load ptr, ptr %2, align 8, !tbaa !4
  %22 = getelementptr inbounds nuw %struct.strvec, ptr %21, i32 0, i32 1
  %23 = load i64, ptr %22, align 8, !tbaa !15
  %24 = sub i64 %23, 1
  %25 = getelementptr inbounds nuw ptr, ptr %20, i64 %24
  store ptr null, ptr %25, align 8, !tbaa !9
  %26 = load ptr, ptr %2, align 8, !tbaa !4
  %27 = getelementptr inbounds nuw %struct.strvec, ptr %26, i32 0, i32 1
  %28 = load i64, ptr %27, align 8, !tbaa !15
  %29 = add i64 %28, -1
  store i64 %29, ptr %27, align 8, !tbaa !15
  br label %30

30:                                               ; preds = %8, %7
  ret void
}