; Function Attrs: mustprogress nounwind willreturn uwtable
define dso_local void @strvec_pop(ptr noundef captures(none) %0) local_unnamed_addr #8 {
  %2 = getelementptr inbounds nuw i8, ptr %0, i64 8
  %3 = load i64, ptr %2, align 8, !tbaa !11
  %.not = icmp eq i64 %3, 0
  br i1 %.not, label %14, label %4

4:                                                ; preds = %1
  %5 = load ptr, ptr %0, align 8, !tbaa !4
  %6 = getelementptr ptr, ptr %5, i64 %3
  %7 = getelementptr i8, ptr %6, i64 -8
  %8 = load ptr, ptr %7, align 8, !tbaa !13
  tail call void @free(ptr noundef %8) #11
  %9 = load ptr, ptr %0, align 8, !tbaa !4
  %10 = load i64, ptr %2, align 8, !tbaa !11
  %11 = getelementptr ptr, ptr %9, i64 %10
  %12 = getelementptr i8, ptr %11, i64 -8
  store ptr null, ptr %12, align 8, !tbaa !13
  %13 = add i64 %10, -1
  store i64 %13, ptr %2, align 8, !tbaa !11
  br label %14

14:                                               ; preds = %1, %4
  ret void
}